; ModuleID = '20/436.c'
source_filename = "20/436.c"
target datalayout = "e-m:e-p270:32:32-p271:32:32-p272:64:64-i64:64-f80:128-n8:16:32:64-S128"
target triple = "x86_64-pc-linux-gnu"

@.str = private unnamed_addr constant [5 x i8] c"%s%s\00", align 1
@.str.1 = private unnamed_addr constant [4 x i8] c"%s\0A\00", align 1

; Function Attrs: noinline nounwind uwtable
define dso_local void @main() #0 {
  %1 = alloca i32, align 4
  %2 = alloca i32, align 4
  %3 = alloca i32, align 4
  %4 = alloca [100 x i8], align 16
  %5 = alloca [100 x i8], align 16
  %6 = alloca i8, align 1
  br label %7

7:                                                ; preds = %84, %0
  %8 = getelementptr inbounds [100 x i8], [100 x i8]* %4, i64 0, i64 0
  %9 = getelementptr inbounds [100 x i8], [100 x i8]* %5, i64 0, i64 0
  %10 = call i32 (i8*, ...) @__isoc99_scanf(i8* getelementptr inbounds ([5 x i8], [5 x i8]* @.str, i64 0, i64 0), i8* %8, i8* %9)
  %11 = icmp ne i32 %10, -1
  br i1 %11, label %12, label %87

12:                                               ; preds = %7
  %13 = getelementptr inbounds [100 x i8], [100 x i8]* %4, i64 0, i64 0
  %14 = call i64 @strlen(i8* %13) #3
  %15 = trunc i64 %14 to i32
  store i32 %15, i32* %2, align 4
  store i32 0, i32* %1, align 4
  store i32 0, i32* %3, align 4
  %16 = getelementptr inbounds [100 x i8], [100 x i8]* %4, i64 0, i64 0
  %17 = load i8, i8* %16, align 16
  store i8 %17, i8* %6, align 1
  br label %18

18:                                               ; preds = %39, %12
  %19 = load i32, i32* %1, align 4
  %20 = load i32, i32* %2, align 4
  %21 = sub nsw i32 %20, 1
  %22 = icmp slt i32 %19, %21
  br i1 %22, label %23, label %42

23:                                               ; preds = %18
  %24 = load i32, i32* %1, align 4
  %25 = sext i32 %24 to i64
  %26 = getelementptr inbounds [100 x i8], [100 x i8]* %4, i64 0, i64 %25
  %27 = load i8, i8* %26, align 1
  %28 = sext i8 %27 to i32
  %29 = load i8, i8* %6, align 1
  %30 = sext i8 %29 to i32
  %31 = icmp sgt i32 %28, %30
  br i1 %31, label %32, label %38

32:                                               ; preds = %23
  %33 = load i32, i32* %1, align 4
  %34 = sext i32 %33 to i64
  %35 = getelementptr inbounds [100 x i8], [100 x i8]* %4, i64 0, i64 %34
  %36 = load i8, i8* %35, align 1
  store i8 %36, i8* %6, align 1
  %37 = load i32, i32* %1, align 4
  store i32 %37, i32* %3, align 4
  br label %38

38:                                               ; preds = %32, %23
  br label %39

39:                                               ; preds = %38
  %40 = load i32, i32* %1, align 4
  %41 = add nsw i32 %40, 1
  store i32 %41, i32* %1, align 4
  br label %18

42:                                               ; preds = %18
  %43 = load i32, i32* %2, align 4
  %44 = add nsw i32 %43, 3
  %45 = sext i32 %44 to i64
  %46 = getelementptr inbounds [100 x i8], [100 x i8]* %4, i64 0, i64 %45
  store i8 0, i8* %46, align 1
  %47 = load i32, i32* %2, align 4
  %48 = add nsw i32 %47, 2
  store i32 %48, i32* %1, align 4
  br label %49

49:                                               ; preds = %63, %42
  %50 = load i32, i32* %1, align 4
  %51 = load i32, i32* %3, align 4
  %52 = add nsw i32 %51, 3
  %53 = icmp sgt i32 %50, %52
  br i1 %53, label %54, label %66

54:                                               ; preds = %49
  %55 = load i32, i32* %1, align 4
  %56 = sub nsw i32 %55, 3
  %57 = sext i32 %56 to i64
  %58 = getelementptr inbounds [100 x i8], [100 x i8]* %4, i64 0, i64 %57
  %59 = load i8, i8* %58, align 1
  %60 = load i32, i32* %1, align 4
  %61 = sext i32 %60 to i64
  %62 = getelementptr inbounds [100 x i8], [100 x i8]* %4, i64 0, i64 %61
  store i8 %59, i8* %62, align 1
  br label %63

63:                                               ; preds = %54
  %64 = load i32, i32* %1, align 4
  %65 = add nsw i32 %64, -1
  store i32 %65, i32* %1, align 4
  br label %49

66:                                               ; preds = %49
  store i32 1, i32* %1, align 4
  br label %67

67:                                               ; preds = %81, %66
  %68 = load i32, i32* %1, align 4
  %69 = icmp sle i32 %68, 3
  br i1 %69, label %70, label %84

70:                                               ; preds = %67
  %71 = load i32, i32* %1, align 4
  %72 = sub nsw i32 %71, 1
  %73 = sext i32 %72 to i64
  %74 = getelementptr inbounds [100 x i8], [100 x i8]* %5, i64 0, i64 %73
  %75 = load i8, i8* %74, align 1
  %76 = load i32, i32* %3, align 4
  %77 = load i32, i32* %1, align 4
  %78 = add nsw i32 %76, %77
  %79 = sext i32 %78 to i64
  %80 = getelementptr inbounds [100 x i8], [100 x i8]* %4, i64 0, i64 %79
  store i8 %75, i8* %80, align 1
  br label %81

81:                                               ; preds = %70
  %82 = load i32, i32* %1, align 4
  %83 = add nsw i32 %82, 1
  store i32 %83, i32* %1, align 4
  br label %67

84:                                               ; preds = %67
  %85 = getelementptr inbounds [100 x i8], [100 x i8]* %4, i64 0, i64 0
  %86 = call i32 (i8*, ...) @printf(i8* getelementptr inbounds ([4 x i8], [4 x i8]* @.str.1, i64 0, i64 0), i8* %85)
  br label %7

87:                                               ; preds = %7
  ret void
}

declare dso_local i32 @__isoc99_scanf(i8*, ...) #1

; Function Attrs: nounwind readonly
declare dso_local i64 @strlen(i8*) #2

declare dso_local i32 @printf(i8*, ...) #1


!llvm.module.flags = !{!0}
!llvm.ident = !{!1}

!0 = !{i32 1, !"wchar_size", i32 4}
!1 = !{!"clang version 10.0.0-4ubuntu1 "}
